; Function Attrs: nounwind sspstrong uwtable
define internal void @vfio_intx_interrupt(ptr noundef %opaque) #0 {
entry:
  %_now.i.i = alloca %struct.timeval, align 8
  %interrupt = getelementptr inbounds nuw i8, ptr %opaque, i64 2764
  %call = tail call i32 @event_notifier_test_and_clear(ptr noundef nonnull %interrupt) #23
  %tobool.not = icmp eq i32 %call, 0
  br i1 %tobool.not, label %if.end13, label %if.end

if.end:                                           ; preds = %entry
  %intx = getelementptr inbounds nuw i8, ptr %opaque, i64 2760
  %name = getelementptr inbounds nuw i8, ptr %opaque, i64 2680
  %0 = load ptr, ptr %name, align 8
  %pin = getelementptr inbounds nuw i8, ptr %opaque, i64 2762
  %1 = load i8, ptr %pin, align 2
  %add = add i8 %1, 65
  call void @llvm.lifetime.start.p0(i64 16, ptr nonnull %_now.i.i)
  %2 = load i32, ptr @trace_events_enabled_count, align 4
  %tobool.i.i = icmp ne i32 %2, 0
  %3 = load i16, ptr @_TRACE_VFIO_INTX_INTERRUPT_DSTATE, align 2
  %tobool4.i.i = icmp ne i16 %3, 0
  %or.cond.i.i = select i1 %tobool.i.i, i1 %tobool4.i.i, i1 false
  br i1 %or.cond.i.i, label %land.lhs.true5.i.i, label %trace_vfio_intx_interrupt.exit

land.lhs.true5.i.i:                               ; preds = %if.end
  %4 = load i32, ptr @qemu_loglevel, align 4
  %and.i.i.i = and i32 %4, 32768
  %cmp.i.not.i.i = icmp eq i32 %and.i.i.i, 0
  br i1 %cmp.i.not.i.i, label %trace_vfio_intx_interrupt.exit, label %if.then.i.i

if.then.i.i:                                      ; preds = %land.lhs.true5.i.i
  %5 = load i8, ptr @message_with_timestamp, align 1
  %tobool7.i.i = trunc i8 %5 to i1
  br i1 %tobool7.i.i, label %if.then8.i.i, label %if.else.i.i

if.then8.i.i:                                     ; preds = %if.then.i.i
  %call9.i.i = call i32 @gettimeofday(ptr noundef nonnull %_now.i.i, ptr noundef null) #23
  %call10.i.i = tail call i32 @qemu_get_thread_id() #23
  %6 = load i64, ptr %_now.i.i, align 8
  %tv_usec.i.i = getelementptr inbounds nuw i8, ptr %_now.i.i, i64 8
  %7 = load i64, ptr %tv_usec.i.i, align 8
  %conv11.i.i = sext i8 %add to i32
  tail call void (ptr, ...) @qemu_log(ptr noundef nonnull @.str.44, i32 noundef %call10.i.i, i64 noundef %6, i64 noundef %7, ptr noundef %0, i32 noundef %conv11.i.i) #23
  br label %trace_vfio_intx_interrupt.exit

if.else.i.i:                                      ; preds = %if.then.i.i
  %conv12.i.i = sext i8 %add to i32
  tail call void (ptr, ...) @qemu_log(ptr noundef nonnull @.str.45, ptr noundef %0, i32 noundef %conv12.i.i) #23
  br label %trace_vfio_intx_interrupt.exit

trace_vfio_intx_interrupt.exit:                   ; preds = %if.end, %land.lhs.true5.i.i, %if.then8.i.i, %if.else.i.i
  call void @llvm.lifetime.end.p0(i64 16, ptr nonnull %_now.i.i)
  store i8 1, ptr %intx, align 8
  tail call void @pci_set_irq(ptr noundef nonnull %opaque, i32 noundef 1) #23
  %bars.i = getelementptr inbounds nuw i8, ptr %opaque, i64 2888
  br label %for.body.i

for.body.i:                                       ; preds = %for.body.i, %trace_vfio_intx_interrupt.exit
  %indvars.iv.i = phi i64 [ 0, %trace_vfio_intx_interrupt.exit ], [ %indvars.iv.next.i, %for.body.i ]
  %arrayidx.i = getelementptr [6 x %struct.VFIOBAR], ptr %bars.i, i64 0, i64 %indvars.iv.i
  tail call void @vfio_region_mmaps_set_enabled(ptr noundef %arrayidx.i, i1 noundef zeroext false) #23
  %indvars.iv.next.i = add nuw nsw i64 %indvars.iv.i, 1
  %exitcond.not.i = icmp eq i64 %indvars.iv.next.i, 6
  br i1 %exitcond.not.i, label %vfio_mmap_set_enabled.exit, label %for.body.i, !llvm.loop !16

vfio_mmap_set_enabled.exit:                       ; preds = %for.body.i
  %mmap_timeout = getelementptr inbounds nuw i8, ptr %opaque, i64 2796
  %8 = load i32, ptr %mmap_timeout, align 4
  %tobool5.not = icmp eq i32 %8, 0
  br i1 %tobool5.not, label %if.end13, label %if.then6

if.then6:                                         ; preds = %vfio_mmap_set_enabled.exit
  %mmap_timer = getelementptr inbounds nuw i8, ptr %opaque, i64 2800
  %9 = load ptr, ptr %mmap_timer, align 8
  %call.i = tail call i64 @qemu_clock_get_ns(i32 noundef 1) #23
  %div.i = sdiv i64 %call.i, 1000000
  %10 = load i32, ptr %mmap_timeout, align 4
  %conv11 = zext i32 %10 to i64
  %add12 = add nsw i64 %div.i, %conv11
  tail call void @timer_mod(ptr noundef %9, i64 noundef %add12) #23
  br label %if.end13

if.end13:                                         ; preds = %entry, %if.then6, %vfio_mmap_set_enabled.exit
  ret void
}